; Function Attrs: mustprogress nofree norecurse nosync nounwind willreturn memory(read, inaccessiblemem: none) uwtable
define hidden noundef ptr @_ZNK6hermes2vm6detail10WeakRefKey13getObjectInGCERNS0_7HadesGCE(ptr noundef nonnull readonly align 8 captures(none) dereferenceable(12) %this, ptr noundef nonnull readonly align 8 captures(none) dereferenceable(8152) %gc) local_unnamed_addr #4 align 2 {
entry:
  %pointerBase_.i = getelementptr inbounds nuw i8, ptr %gc, i64 40
  %0 = load ptr, ptr %pointerBase_.i, align 8
  %1 = load ptr, ptr %this, align 8
  %2 = load i32, ptr %1, align 4
  %cmp.i.i.i.i.i.i.not.i = icmp eq i32 %2, 0
  %3 = ptrtoint ptr %0 to i64
  %conv.i.i.i.i.i.i = zext i32 %2 to i64
  %add.i.i.i.i.i.i = add i64 %conv.i.i.i.i.i.i, %3
  %4 = inttoptr i64 %add.i.i.i.i.i.i to ptr
  %retval.0.i = select i1 %cmp.i.i.i.i.i.i.not.i, ptr null, ptr %4
  ret ptr %retval.0.i
}